; Function Attrs: nofree norecurse nosync nounwind memory(readwrite, inaccessiblemem: none) uwtable
define void @zend_hash_iterators_advance(ptr noundef readnone %0, i32 noundef %1) local_unnamed_addr #15 {
  %3 = load ptr, ptr getelementptr inbounds (%struct._zend_executor_globals, ptr @executor_globals, i64 0, i32 60), align 8
  %4 = load i32, ptr getelementptr inbounds (%struct._zend_executor_globals, ptr @executor_globals, i64 0, i32 59), align 4
  %5 = zext i32 %4 to i64
  %6 = getelementptr inbounds %struct._HashTableIterator, ptr %3, i64 %5
  %.not7 = icmp eq i32 %4, 0
  br i1 %.not7, label %._crit_edge, label %.lr.ph

.lr.ph:                                           ; preds = %2, %13
  %.08 = phi ptr [ %14, %13 ], [ %3, %2 ]
  %7 = load ptr, ptr %.08, align 8
  %8 = icmp eq ptr %7, %0
  br i1 %8, label %9, label %13

9:                                                ; preds = %.lr.ph
  %10 = getelementptr inbounds i8, ptr %.08, i64 8
  %11 = load i32, ptr %10, align 8
  %12 = add i32 %11, %1
  store i32 %12, ptr %10, align 8
  br label %13

13:                                               ; preds = %9, %.lr.ph
  %14 = getelementptr inbounds i8, ptr %.08, i64 16
  %.not = icmp eq ptr %14, %6
  br i1 %.not, label %._crit_edge, label %.lr.ph

._crit_edge:                                      ; preds = %13, %2
  ret void
}